; Function Attrs: mustprogress nofree norecurse nosync nounwind willreturn memory(read, argmem: readwrite, inaccessiblemem: none) uwtable
define dso_local void @_ZN4Luau7CodeGen3X6416IrCallWrapperX6411addArgumentENS1_7SizeX64ENS1_10OperandX64ENS0_4IrOpE(ptr noundef nonnull align 8 captures(none) dereferenceable(240) %0, i8 noundef zeroext %1, i64 %2, i32 %3) local_unnamed_addr #2 align 2 {
  %5 = getelementptr inbounds nuw i8, ptr %0, i64 20
  %6 = getelementptr inbounds nuw i8, ptr %0, i64 188
  %7 = load i32, ptr %6, align 4, !tbaa !29
  %8 = add nsw i32 %7, 1
  store i32 %8, ptr %6, align 4, !tbaa !29
  %9 = sext i32 %7 to i64
  %10 = getelementptr inbounds nuw [6 x %"struct.Luau::CodeGen::X64::CallArgument"], ptr %5, i64 0, i64 %9
  store i8 %1, ptr %10, align 4, !tbaa !30
  %.sroa.48.0..sroa_idx = getelementptr inbounds nuw i8, ptr %10, i64 4
  store i64 %2, ptr %.sroa.48.0..sroa_idx, align 4
  %.sroa.5.0..sroa_idx = getelementptr inbounds nuw i8, ptr %10, i64 12
  store i32 %3, ptr %.sroa.5.0..sroa_idx, align 4, !tbaa !26
  %.sroa.6.0..sroa_idx = getelementptr inbounds nuw i8, ptr %10, i64 16
  store i8 0, ptr %.sroa.6.0..sroa_idx, align 4, !tbaa !31
  %.sroa.7.0..sroa_idx = getelementptr inbounds nuw i8, ptr %10, i64 17
  store i8 -128, ptr %.sroa.7.0..sroa_idx, align 1, !tbaa !26
  %.sroa.8.0..sroa_idx = getelementptr inbounds nuw i8, ptr %10, i64 18
  store i8 -128, ptr %.sroa.8.0..sroa_idx, align 2, !tbaa !26
  %.sroa.9.0..sroa_idx = getelementptr inbounds nuw i8, ptr %10, i64 19
  store i8 16, ptr %.sroa.9.0..sroa_idx, align 1, !tbaa !26
  %.sroa.11.0..sroa_idx = getelementptr inbounds nuw i8, ptr %10, i64 24
  store i8 1, ptr %.sroa.11.0..sroa_idx, align 4, !tbaa !32
  %11 = icmp eq i8 %1, 5
  br i1 %11, label %12, label %16

12:                                               ; preds = %4
  %13 = getelementptr inbounds nuw i8, ptr %0, i64 196
  %14 = load i32, ptr %13, align 4, !tbaa !33
  %15 = sext i32 %14 to i64
  %.sroa.59.0..sroa_idx.i = getelementptr inbounds nuw [4 x %"struct.Luau::CodeGen::X64::OperandX64"], ptr @_ZN4Luau7CodeGen3X64L9kXmmOrderE, i64 0, i64 %15, i32 2
  %.sroa.59.0.copyload.i = load i8, ptr %.sroa.59.0..sroa_idx.i, align 2, !tbaa !26
  %.phi.trans.insert = getelementptr inbounds nuw i8, ptr %0, i64 8
  %.pre = load ptr, ptr %.phi.trans.insert, align 8, !tbaa !34
  br label %_ZNK4Luau7CodeGen3X6416IrCallWrapperX6421getNextArgumentTargetENS1_7SizeX64E.exit

16:                                               ; preds = %4
  %17 = getelementptr inbounds nuw i8, ptr %0, i64 8
  %18 = load ptr, ptr %17, align 8, !tbaa !34
  %19 = getelementptr inbounds nuw i8, ptr %18, i64 84
  %20 = load i32, ptr %19, align 4, !tbaa !35
  %21 = icmp eq i32 %20, 0
  %_ZN4Luau7CodeGen3X64L16kWindowsGprOrderE._ZN4Luau7CodeGen3X64L16kSystemvGprOrderE.i = select i1 %21, ptr @_ZN4Luau7CodeGen3X64L16kWindowsGprOrderE, ptr @_ZN4Luau7CodeGen3X64L16kSystemvGprOrderE
  %22 = getelementptr inbounds nuw i8, ptr %0, i64 192
  %23 = load i32, ptr %22, align 8, !tbaa !66
  %24 = sext i32 %23 to i64
  %25 = getelementptr inbounds nuw [6 x %"struct.Luau::CodeGen::X64::OperandX64"], ptr %_ZN4Luau7CodeGen3X64L16kWindowsGprOrderE._ZN4Luau7CodeGen3X64L16kSystemvGprOrderE.i, i64 0, i64 %24
  %.sroa.0.0.copyload5.i = load i8, ptr %25, align 4, !tbaa !31
  %.sroa.5.0..sroa_idx7.i = getelementptr inbounds nuw i8, ptr %25, i64 1
  %.sroa.5.0.copyload8.i = load i8, ptr %.sroa.5.0..sroa_idx7.i, align 1, !tbaa !26
  %.sroa.59.0..sroa_idx10.i = getelementptr inbounds nuw i8, ptr %25, i64 2
  %.sroa.59.0.copyload11.i = load i8, ptr %.sroa.59.0..sroa_idx10.i, align 2, !tbaa !26
  %.sroa.7.0..sroa_idx12.i = getelementptr inbounds nuw i8, ptr %25, i64 3
  %.sroa.7.0.copyload13.i = load i8, ptr %.sroa.7.0..sroa_idx12.i, align 1, !tbaa !26
  %.sroa.9.0..sroa_idx14.i = getelementptr inbounds nuw i8, ptr %25, i64 4
  %.sroa.9.0.copyload15.i = load i32, ptr %.sroa.9.0..sroa_idx14.i, align 4, !tbaa !67
  switch i8 %.sroa.0.0.copyload5.i, label %_ZNK4Luau7CodeGen3X6416IrCallWrapperX6421getNextArgumentTargetENS1_7SizeX64E.exit [
    i8 0, label %26
    i8 1, label %30
  ]

26:                                               ; preds = %16
  %27 = and i8 %1, 7
  %28 = and i8 %.sroa.59.0.copyload11.i, -8
  %29 = or disjoint i8 %28, %27
  br label %_ZNK4Luau7CodeGen3X6416IrCallWrapperX6421getNextArgumentTargetENS1_7SizeX64E.exit

30:                                               ; preds = %16
  %31 = and i8 %1, 15
  %32 = and i8 %.sroa.7.0.copyload13.i, -16
  %33 = or disjoint i8 %32, %31
  br label %_ZNK4Luau7CodeGen3X6416IrCallWrapperX6421getNextArgumentTargetENS1_7SizeX64E.exit

_ZNK4Luau7CodeGen3X6416IrCallWrapperX6421getNextArgumentTargetENS1_7SizeX64E.exit: ; preds = %12, %16, %26, %30
  %34 = phi ptr [ %.pre, %12 ], [ %18, %16 ], [ %18, %30 ], [ %18, %26 ]
  %.sroa.5.0.i = phi i8 [ -128, %12 ], [ %.sroa.5.0.copyload8.i, %16 ], [ %.sroa.5.0.copyload8.i, %30 ], [ %.sroa.5.0.copyload8.i, %26 ]
  %.sroa.0.0.i = phi i8 [ 0, %12 ], [ %.sroa.0.0.copyload5.i, %16 ], [ 1, %30 ], [ 0, %26 ]
  %.sroa.59.0.i = phi i8 [ %.sroa.59.0.copyload.i, %12 ], [ %.sroa.59.0.copyload11.i, %16 ], [ %.sroa.59.0.copyload11.i, %30 ], [ %29, %26 ]
  %.sroa.7.0.i = phi i8 [ 16, %12 ], [ %.sroa.7.0.copyload13.i, %16 ], [ %33, %30 ], [ %.sroa.7.0.copyload13.i, %26 ]
  %.sroa.9.0.i = phi i32 [ 0, %12 ], [ %.sroa.9.0.copyload15.i, %16 ], [ %.sroa.9.0.copyload15.i, %30 ], [ %.sroa.9.0.copyload15.i, %26 ]
  %.sroa.9.0.insert.ext.i = zext i32 %.sroa.9.0.i to i64
  %.sroa.9.0.insert.shift.i = shl nuw i64 %.sroa.9.0.insert.ext.i, 32
  %.sroa.7.0.insert.ext.i = zext i8 %.sroa.7.0.i to i64
  %.sroa.7.0.insert.shift.i = shl nuw nsw i64 %.sroa.7.0.insert.ext.i, 24
  %.sroa.7.0.insert.insert.i = or disjoint i64 %.sroa.9.0.insert.shift.i, %.sroa.7.0.insert.shift.i
  %.sroa.59.0.insert.ext.i = zext i8 %.sroa.59.0.i to i64
  %.sroa.59.0.insert.shift.i = shl nuw nsw i64 %.sroa.59.0.insert.ext.i, 16
  %.sroa.59.0.insert.insert.i = or disjoint i64 %.sroa.7.0.insert.insert.i, %.sroa.59.0.insert.shift.i
  %.sroa.5.0.insert.ext.i = zext i8 %.sroa.5.0.i to i64
  %.sroa.5.0.insert.shift.i = shl nuw nsw i64 %.sroa.5.0.insert.ext.i, 8
  %.sroa.5.0.insert.insert.i = or disjoint i64 %.sroa.59.0.insert.insert.i, %.sroa.5.0.insert.shift.i
  %.sroa.0.0.insert.ext.i = zext i8 %.sroa.0.0.i to i64
  %.sroa.0.0.insert.insert.i = or disjoint i64 %.sroa.5.0.insert.insert.i, %.sroa.0.0.insert.ext.i
  store i64 %.sroa.0.0.insert.insert.i, ptr %.sroa.6.0..sroa_idx, align 4
  %35 = getelementptr inbounds nuw i8, ptr %34, i64 84
  %36 = load i32, ptr %35, align 4, !tbaa !35
  %37 = icmp eq i32 %36, 0
  br i1 %37, label %38, label %45

38:                                               ; preds = %_ZNK4Luau7CodeGen3X6416IrCallWrapperX6421getNextArgumentTargetENS1_7SizeX64E.exit
  %39 = getelementptr inbounds nuw i8, ptr %0, i64 192
  %40 = load i32, ptr %39, align 8, !tbaa !66
  %41 = add nsw i32 %40, 1
  store i32 %41, ptr %39, align 8, !tbaa !66
  %42 = getelementptr inbounds nuw i8, ptr %0, i64 196
  %43 = load i32, ptr %42, align 4, !tbaa !33
  %44 = add nsw i32 %43, 1
  store i32 %44, ptr %42, align 4, !tbaa !33
  br label %54

45:                                               ; preds = %_ZNK4Luau7CodeGen3X6416IrCallWrapperX6421getNextArgumentTargetENS1_7SizeX64E.exit
  br i1 %11, label %46, label %50

46:                                               ; preds = %45
  %47 = getelementptr inbounds nuw i8, ptr %0, i64 196
  %48 = load i32, ptr %47, align 4, !tbaa !33
  %49 = add nsw i32 %48, 1
  store i32 %49, ptr %47, align 4, !tbaa !33
  br label %54

50:                                               ; preds = %45
  %51 = getelementptr inbounds nuw i8, ptr %0, i64 192
  %52 = load i32, ptr %51, align 8, !tbaa !66
  %53 = add nsw i32 %52, 1
  store i32 %53, ptr %51, align 8, !tbaa !66
  br label %54

54:                                               ; preds = %46, %50, %38
  ret void
}